target datalayout = "e-m:e-p270:32:32-p271:32:32-p272:64:64-i64:64-i128:128-f80:128-n8:16:32:64-S128"
target triple = "x86_64-pc-linux-gnu"

%struct.Vec_Int_t_ = type { i32, i32, ptr }
%struct.Abc_Obj_t_ = type { ptr, ptr, i32, i32, %struct.Vec_Int_t_, %struct.Vec_Int_t_, %union.anon, %union.anon.0 }
%union.anon = type { ptr }
%union.anon.0 = type { ptr }
%struct.Abc_Ntk_t_ = type { i32, i32, ptr, ptr, ptr, ptr, ptr, ptr, ptr, ptr, ptr, ptr, ptr, [11 x i32], i32, i32, i32, i32, ptr, i32, ptr, ptr, i32, i32, i32, double, i32, %struct.Vec_Int_t_, ptr, ptr, ptr, ptr, ptr, float, i32, ptr, ptr, ptr, ptr, ptr, ptr, ptr, ptr, ptr, ptr, ptr, ptr, ptr, ptr, ptr, ptr, ptr, ptr, ptr, ptr, ptr, ptr }
%struct.Vec_Ptr_t_ = type { i32, i32, ptr }

; Function Attrs: inlinehint nounwind uwtable
define internal i32 @Abc_ObjIsNode(ptr noundef %0) #2 {
  %2 = alloca ptr, align 8
  store ptr %0, ptr %2, align 8, !tbaa !40
  %3 = load ptr, ptr %2, align 8, !tbaa !40
  %4 = getelementptr inbounds nuw %struct.Abc_Obj_t_, ptr %3, i32 0, i32 3
  %5 = load i32, ptr %4, align 4
  %6 = and i32 %5, 15
  %7 = icmp eq i32 %6, 7
  %8 = zext i1 %7 to i32
  ret i32 %8
}

; Function Attrs: inlinehint nounwind uwtable
define internal ptr @Vec_PtrEntry(ptr noundef %0, i32 noundef %1) #2 {
  %3 = alloca ptr, align 8
  %4 = alloca i32, align 4
  store ptr %0, ptr %3, align 8, !tbaa !73
  store i32 %1, ptr %4, align 4, !tbaa !8
  %5 = load ptr, ptr %3, align 8, !tbaa !73
  %6 = getelementptr inbounds nuw %struct.Vec_Ptr_t_, ptr %5, i32 0, i32 2
  %7 = load ptr, ptr %6, align 8, !tbaa !58
  %8 = load i32, ptr %4, align 4, !tbaa !8
  %9 = sext i32 %8 to i64
  %10 = getelementptr inbounds ptr, ptr %7, i64 %9
  %11 = load ptr, ptr %10, align 8, !tbaa !61
  ret ptr %11
}

; Function Attrs: inlinehint nounwind uwtable
define internal i32 @Vec_PtrSize(ptr noundef %0) #2 {
  %2 = alloca ptr, align 8
  store ptr %0, ptr %2, align 8, !tbaa !73
  %3 = load ptr, ptr %2, align 8, !tbaa !73
  %4 = getelementptr inbounds nuw %struct.Vec_Ptr_t_, ptr %3, i32 0, i32 1
  %5 = load i32, ptr %4, align 4, !tbaa !77
  ret i32 %5
}

; Function Attrs: inlinehint nounwind uwtable
define internal ptr @Abc_ObjFanin0(ptr noundef %0) #2 {
  %2 = alloca ptr, align 8
  store ptr %0, ptr %2, align 8, !tbaa !40
  %3 = load ptr, ptr %2, align 8, !tbaa !40
  %4 = getelementptr inbounds nuw %struct.Abc_Obj_t_, ptr %3, i32 0, i32 0
  %5 = load ptr, ptr %4, align 8, !tbaa !46
  %6 = getelementptr inbounds nuw %struct.Abc_Ntk_t_, ptr %5, i32 0, i32 5
  %7 = load ptr, ptr %6, align 8, !tbaa !47
  %8 = getelementptr inbounds nuw %struct.Vec_Ptr_t_, ptr %7, i32 0, i32 2
  %9 = load ptr, ptr %8, align 8, !tbaa !58
  %10 = load ptr, ptr %2, align 8, !tbaa !40
  %11 = getelementptr inbounds nuw %struct.Abc_Obj_t_, ptr %10, i32 0, i32 4
  %12 = getelementptr inbounds nuw %struct.Vec_Int_t_, ptr %11, i32 0, i32 2
  %13 = load ptr, ptr %12, align 8, !tbaa !62
  %14 = getelementptr inbounds i32, ptr %13, i64 0
  %15 = load i32, ptr %14, align 4, !tbaa !8
  %16 = sext i32 %15 to i64
  %17 = getelementptr inbounds ptr, ptr %9, i64 %16
  %18 = load ptr, ptr %17, align 8, !tbaa !61
  ret ptr %18
}

; Function Attrs: inlinehint nounwind uwtable
define internal i32 @Abc_ObjFaninNum(ptr noundef %0) #2 {
  %2 = alloca ptr, align 8
  store ptr %0, ptr %2, align 8, !tbaa !40
  %3 = load ptr, ptr %2, align 8, !tbaa !40
  %4 = getelementptr inbounds nuw %struct.Abc_Obj_t_, ptr %3, i32 0, i32 4
  %5 = getelementptr inbounds nuw %struct.Vec_Int_t_, ptr %4, i32 0, i32 1
  %6 = load i32, ptr %5, align 4, !tbaa !65
  ret i32 %6
}

; Function Attrs: inlinehint nounwind uwtable
define internal ptr @Vec_IntEntryP(ptr noundef %0, i32 noundef %1) #2 {
  %3 = alloca ptr, align 8
  %4 = alloca i32, align 4
  store ptr %0, ptr %3, align 8, !tbaa !10
  store i32 %1, ptr %4, align 4, !tbaa !8
  %5 = load ptr, ptr %3, align 8, !tbaa !10
  %6 = getelementptr inbounds nuw %struct.Vec_Int_t_, ptr %5, i32 0, i32 2
  %7 = load ptr, ptr %6, align 8, !tbaa !35
  %8 = load i32, ptr %4, align 4, !tbaa !8
  %9 = sext i32 %8 to i64
  %10 = getelementptr inbounds i32, ptr %7, i64 %9
  ret ptr %10
}

; Function Attrs: inlinehint nounwind uwtable
define internal i32 @Vec_IntEntry(ptr noundef %0, i32 noundef %1) #2 {
  %3 = alloca ptr, align 8
  %4 = alloca i32, align 4
  store ptr %0, ptr %3, align 8, !tbaa !10
  store i32 %1, ptr %4, align 4, !tbaa !8
  %5 = load ptr, ptr %3, align 8, !tbaa !10
  %6 = getelementptr inbounds nuw %struct.Vec_Int_t_, ptr %5, i32 0, i32 2
  %7 = load ptr, ptr %6, align 8, !tbaa !35
  %8 = load i32, ptr %4, align 4, !tbaa !8
  %9 = sext i32 %8 to i64
  %10 = getelementptr inbounds i32, ptr %7, i64 %9
  %11 = load i32, ptr %10, align 4, !tbaa !8
  ret i32 %11
}

; Function Attrs: nounwind uwtable
define void @Abc_ObjChangePerform(ptr noundef %0, ptr noundef %1, ptr noundef %2, i32 noundef %3, ptr noundef %4, ptr noundef %5, ptr noundef %6, ptr noundef %7) #0 {
  %9 = alloca ptr, align 8
  %10 = alloca ptr, align 8
  %11 = alloca ptr, align 8
  %12 = alloca i32, align 4
  %13 = alloca ptr, align 8
  %14 = alloca ptr, align 8
  %15 = alloca ptr, align 8
  %16 = alloca ptr, align 8
  %17 = alloca ptr, align 8
  %18 = alloca ptr, align 8
  %19 = alloca ptr, align 8
  %20 = alloca i32, align 4
  %21 = alloca i32, align 4
  %22 = alloca ptr, align 8
  %23 = alloca ptr, align 8
  %24 = alloca i32, align 4
  %25 = alloca i32, align 4
  %26 = alloca i32, align 4
  %27 = alloca ptr, align 8
  store ptr %0, ptr %9, align 8, !tbaa !40
  store ptr %1, ptr %10, align 8, !tbaa !10
  store ptr %2, ptr %11, align 8, !tbaa !10
  store i32 %3, ptr %12, align 4, !tbaa !8
  store ptr %4, ptr %13, align 8, !tbaa !10
  store ptr %5, ptr %14, align 8, !tbaa !73
  store ptr %6, ptr %15, align 8, !tbaa !73
  store ptr %7, ptr %16, align 8, !tbaa !3
  call void @llvm.lifetime.start.p0(i64 8, ptr %17) #10
  call void @llvm.lifetime.start.p0(i64 8, ptr %18) #10
  call void @llvm.lifetime.start.p0(i64 8, ptr %19) #10
  store ptr null, ptr %19, align 8, !tbaa !40
  call void @llvm.lifetime.start.p0(i64 4, ptr %20) #10
  call void @llvm.lifetime.start.p0(i64 4, ptr %21) #10
  %28 = load ptr, ptr %9, align 8, !tbaa !40
  %29 = getelementptr inbounds nuw %struct.Abc_Obj_t_, ptr %28, i32 0, i32 6
  %30 = load ptr, ptr %29, align 8, !tbaa !68
  %31 = call i32 @Mio_GateReadCell(ptr noundef %30)
  store i32 %31, ptr %21, align 4, !tbaa !8
  call void @llvm.lifetime.start.p0(i64 8, ptr %22) #10
  call void @llvm.lifetime.start.p0(i64 8, ptr %23) #10
  %32 = load ptr, ptr %10, align 8, !tbaa !10
  %33 = load ptr, ptr %11, align 8, !tbaa !10
  %34 = load i32, ptr %21, align 4, !tbaa !8
  %35 = call i32 @Vec_IntEntry(ptr noundef %33, i32 noundef %34)
  %36 = call ptr @Vec_IntEntryP(ptr noundef %32, i32 noundef %35)
  store ptr %36, ptr %23, align 8, !tbaa !12
  call void @llvm.lifetime.start.p0(i64 4, ptr %24) #10
  call void @llvm.lifetime.start.p0(i64 4, ptr %25) #10
  call void @llvm.lifetime.start.p0(i64 4, ptr %26) #10
  %37 = load ptr, ptr %9, align 8, !tbaa !40
  %38 = call i32 @Abc_ObjFaninNum(ptr noundef %37)
  store i32 %38, ptr %26, align 4, !tbaa !8
  %39 = load ptr, ptr %9, align 8, !tbaa !40
  %40 = load ptr, ptr %14, align 8, !tbaa !73
  call void @Abc_NodeCollectFanouts(ptr noundef %39, ptr noundef %40)
  %41 = load ptr, ptr %9, align 8, !tbaa !40
  %42 = call i32 @Abc_NodeIsInv(ptr noundef %41)
  %43 = icmp ne i32 %42, 0
  br i1 %43, label %44, label %68

44:                                               ; preds = %8
  call void @llvm.lifetime.start.p0(i64 8, ptr %27) #10
  %45 = load ptr, ptr %9, align 8, !tbaa !40
  %46 = call ptr @Abc_ObjFanin0(ptr noundef %45)
  store ptr %46, ptr %27, align 8, !tbaa !40
  store i32 0, ptr %25, align 4, !tbaa !8
  br label %47

47:                                               ; preds = %62, %44
  %48 = load i32, ptr %25, align 4, !tbaa !8
  %49 = load ptr, ptr %14, align 8, !tbaa !73
  %50 = call i32 @Vec_PtrSize(ptr noundef %49)
  %51 = icmp slt i32 %48, %50
  br i1 %51, label %52, label %56

52:                                               ; preds = %47
  %53 = load ptr, ptr %14, align 8, !tbaa !73
  %54 = load i32, ptr %25, align 4, !tbaa !8
  %55 = call ptr @Vec_PtrEntry(ptr noundef %53, i32 noundef %54)
  store ptr %55, ptr %17, align 8, !tbaa !40
  br label %56

56:                                               ; preds = %52, %47
  %57 = phi i1 [ false, %47 ], [ true, %52 ]
  br i1 %57, label %58, label %65

58:                                               ; preds = %56
  %59 = load ptr, ptr %17, align 8, !tbaa !40
  %60 = load ptr, ptr %9, align 8, !tbaa !40
  %61 = load ptr, ptr %27, align 8, !tbaa !40
  call void @Abc_ObjPatchFanin(ptr noundef %59, ptr noundef %60, ptr noundef %61)
  br label %62

62:                                               ; preds = %58
  %63 = load i32, ptr %25, align 4, !tbaa !8
  %64 = add nsw i32 %63, 1
  store i32 %64, ptr %25, align 4, !tbaa !8
  br label %47, !llvm.loop !74

65:                                               ; preds = %56
  %66 = load ptr, ptr %9, align 8, !tbaa !40
  call void @Abc_NtkDeleteObj(ptr noundef %66)
  %67 = load ptr, ptr %27, align 8, !tbaa !40
  store ptr %67, ptr %9, align 8, !tbaa !40
  call void @llvm.lifetime.end.p0(i64 8, ptr %27) #10
  br label %74

68:                                               ; preds = %8
  %69 = load ptr, ptr %9, align 8, !tbaa !40
  %70 = load i32, ptr %26, align 4, !tbaa !8
  %71 = load ptr, ptr %16, align 8, !tbaa !3
  %72 = load ptr, ptr %23, align 8, !tbaa !12
  %73 = load ptr, ptr %13, align 8, !tbaa !10
  call void @Abc_ObjChangeUpdate(ptr noundef %69, i32 noundef %70, ptr noundef %71, ptr noundef %72, ptr noundef %73)
  br label %74

74:                                               ; preds = %68, %65
  %75 = load i32, ptr %12, align 4, !tbaa !8
  %76 = icmp ne i32 %75, 0
  br i1 %76, label %77, label %83

77:                                               ; preds = %74
  %78 = load ptr, ptr %9, align 8, !tbaa !40
  %79 = getelementptr inbounds nuw %struct.Abc_Obj_t_, ptr %78, i32 0, i32 0
  %80 = load ptr, ptr %79, align 8, !tbaa !46
  %81 = load ptr, ptr %9, align 8, !tbaa !40
  %82 = call ptr @Abc_NtkCreateNodeInv(ptr noundef %80, ptr noundef %81)
  store ptr %82, ptr %19, align 8, !tbaa !40
  br label %83

83:                                               ; preds = %77, %74
  store i32 0, ptr %24, align 4, !tbaa !8
  br label %84

84:                                               ; preds = %164, %83
  %85 = load i32, ptr %24, align 4, !tbaa !8
  %86 = load ptr, ptr %14, align 8, !tbaa !73
  %87 = call i32 @Vec_PtrSize(ptr noundef %86)
  %88 = icmp slt i32 %85, %87
  br i1 %88, label %89, label %93

89:                                               ; preds = %84
  %90 = load ptr, ptr %14, align 8, !tbaa !73
  %91 = load i32, ptr %24, align 4, !tbaa !8
  %92 = call ptr @Vec_PtrEntry(ptr noundef %90, i32 noundef %91)
  store ptr %92, ptr %17, align 8, !tbaa !40
  br label %93

93:                                               ; preds = %89, %84
  %94 = phi i1 [ false, %84 ], [ true, %89 ]
  br i1 %94, label %95, label %167

95:                                               ; preds = %93
  %96 = load ptr, ptr %17, align 8, !tbaa !40
  %97 = call i32 @Abc_ObjIsNode(ptr noundef %96)
  %98 = icmp ne i32 %97, 0
  br i1 %98, label %99, label %103

99:                                               ; preds = %95
  %100 = load ptr, ptr %17, align 8, !tbaa !40
  %101 = call i32 @Abc_NodeIsBuf(ptr noundef %100)
  %102 = icmp ne i32 %101, 0
  br i1 %102, label %103, label %107

103:                                              ; preds = %99, %95
  %104 = load ptr, ptr %17, align 8, !tbaa !40
  %105 = load ptr, ptr %9, align 8, !tbaa !40
  %106 = load ptr, ptr %19, align 8, !tbaa !40
  call void @Abc_ObjPatchFanin(ptr noundef %104, ptr noundef %105, ptr noundef %106)
  br label %164

107:                                              ; preds = %99
  %108 = load ptr, ptr %17, align 8, !tbaa !40
  %109 = call i32 @Abc_NodeIsInv(ptr noundef %108)
  %110 = icmp ne i32 %109, 0
  br i1 %110, label %111, label %134

111:                                              ; preds = %107
  %112 = load ptr, ptr %17, align 8, !tbaa !40
  %113 = load ptr, ptr %15, align 8, !tbaa !73
  call void @Abc_NodeCollectFanouts(ptr noundef %112, ptr noundef %113)
  store i32 0, ptr %25, align 4, !tbaa !8
  br label %114

114:                                              ; preds = %129, %111
  %115 = load i32, ptr %25, align 4, !tbaa !8
  %116 = load ptr, ptr %15, align 8, !tbaa !73
  %117 = call i32 @Vec_PtrSize(ptr noundef %116)
  %118 = icmp slt i32 %115, %117
  br i1 %118, label %119, label %123

119:                                              ; preds = %114
  %120 = load ptr, ptr %15, align 8, !tbaa !73
  %121 = load i32, ptr %25, align 4, !tbaa !8
  %122 = call ptr @Vec_PtrEntry(ptr noundef %120, i32 noundef %121)
  store ptr %122, ptr %18, align 8, !tbaa !40
  br label %123

123:                                              ; preds = %119, %114
  %124 = phi i1 [ false, %114 ], [ true, %119 ]
  br i1 %124, label %125, label %132

125:                                              ; preds = %123
  %126 = load ptr, ptr %18, align 8, !tbaa !40
  %127 = load ptr, ptr %17, align 8, !tbaa !40
  %128 = load ptr, ptr %9, align 8, !tbaa !40
  call void @Abc_ObjPatchFanin(ptr noundef %126, ptr noundef %127, ptr noundef %128)
  br label %129

129:                                              ; preds = %125
  %130 = load i32, ptr %25, align 4, !tbaa !8
  %131 = add nsw i32 %130, 1
  store i32 %131, ptr %25, align 4, !tbaa !8
  br label %114, !llvm.loop !75

132:                                              ; preds = %123
  %133 = load ptr, ptr %17, align 8, !tbaa !40
  call void @Abc_NtkDeleteObj(ptr noundef %133)
  br label %164

134:                                              ; preds = %107
  %135 = load ptr, ptr %17, align 8, !tbaa !40
  %136 = load ptr, ptr %9, align 8, !tbaa !40
  %137 = call i32 @Abc_NodeFindFanin(ptr noundef %135, ptr noundef %136)
  store i32 %137, ptr %26, align 4, !tbaa !8
  %138 = load ptr, ptr %17, align 8, !tbaa !40
  %139 = getelementptr inbounds nuw %struct.Abc_Obj_t_, ptr %138, i32 0, i32 6
  %140 = load ptr, ptr %139, align 8, !tbaa !68
  %141 = call i32 @Mio_GateReadCell(ptr noundef %140)
  store i32 %141, ptr %20, align 4, !tbaa !8
  %142 = load ptr, ptr %10, align 8, !tbaa !10
  %143 = load ptr, ptr %11, align 8, !tbaa !10
  %144 = load i32, ptr %20, align 4, !tbaa !8
  %145 = call i32 @Vec_IntEntry(ptr noundef %143, i32 noundef %144)
  %146 = call ptr @Vec_IntEntryP(ptr noundef %142, i32 noundef %145)
  store ptr %146, ptr %22, align 8, !tbaa !12
  %147 = load ptr, ptr %22, align 8, !tbaa !12
  %148 = load i32, ptr %26, align 4, !tbaa !8
  %149 = mul nsw i32 3, %148
  %150 = sext i32 %149 to i64
  %151 = getelementptr inbounds i32, ptr %147, i64 %150
  %152 = load i32, ptr %151, align 4, !tbaa !8
  %153 = icmp eq i32 %152, -1
  br i1 %153, label %154, label %158

154:                                              ; preds = %134
  %155 = load ptr, ptr %17, align 8, !tbaa !40
  %156 = load ptr, ptr %9, align 8, !tbaa !40
  %157 = load ptr, ptr %19, align 8, !tbaa !40
  call void @Abc_ObjPatchFanin(ptr noundef %155, ptr noundef %156, ptr noundef %157)
  br label %164

158:                                              ; preds = %134
  %159 = load ptr, ptr %17, align 8, !tbaa !40
  %160 = load i32, ptr %26, align 4, !tbaa !8
  %161 = load ptr, ptr %16, align 8, !tbaa !3
  %162 = load ptr, ptr %22, align 8, !tbaa !12
  %163 = load ptr, ptr %13, align 8, !tbaa !10
  call void @Abc_ObjChangeUpdate(ptr noundef %159, i32 noundef %160, ptr noundef %161, ptr noundef %162, ptr noundef %163)
  br label %164

164:                                              ; preds = %158, %154, %132, %103
  %165 = load i32, ptr %24, align 4, !tbaa !8
  %166 = add nsw i32 %165, 1
  store i32 %166, ptr %24, align 4, !tbaa !8
  br label %84, !llvm.loop !76

167:                                              ; preds = %93
  call void @llvm.lifetime.end.p0(i64 4, ptr %26) #10
  call void @llvm.lifetime.end.p0(i64 4, ptr %25) #10
  call void @llvm.lifetime.end.p0(i64 4, ptr %24) #10
  call void @llvm.lifetime.end.p0(i64 8, ptr %23) #10
  call void @llvm.lifetime.end.p0(i64 8, ptr %22) #10
  call void @llvm.lifetime.end.p0(i64 4, ptr %21) #10
  call void @llvm.lifetime.end.p0(i64 4, ptr %20) #10
  call void @llvm.lifetime.end.p0(i64 8, ptr %19) #10
  call void @llvm.lifetime.end.p0(i64 8, ptr %18) #10
  call void @llvm.lifetime.end.p0(i64 8, ptr %17) #10
  ret void
}