; Function Attrs: nounwind uwtable
define void @Abc_ObjChangePerform(ptr noundef %0, ptr noundef readonly captures(none) %1, ptr noundef readonly captures(none) %2, i32 noundef %3, ptr noundef captures(none) %4, ptr noundef %5, ptr noundef %6, ptr noundef readonly captures(none) %7) local_unnamed_addr #0 {
  %9 = getelementptr inbounds nuw i8, ptr %0, i64 56
  %10 = load ptr, ptr %9, align 8, !tbaa !64
  %11 = tail call i32 @Mio_GateReadCell(ptr noundef %10) #13
  %12 = getelementptr i8, ptr %2, i64 8
  %.val75 = load ptr, ptr %12, align 8, !tbaa !11
  %13 = sext i32 %11 to i64
  %14 = getelementptr inbounds i32, ptr %.val75, i64 %13
  %15 = load i32, ptr %14, align 4, !tbaa !15
  %16 = getelementptr i8, ptr %1, i64 8
  %.val78 = load ptr, ptr %16, align 8, !tbaa !11
  %17 = getelementptr i8, ptr %0, i64 28
  %.val76 = load i32, ptr %17, align 4, !tbaa !59
  tail call void @Abc_NodeCollectFanouts(ptr noundef %0, ptr noundef %5) #13
  %18 = tail call i32 @Abc_NodeIsInv(ptr noundef %0) #13
  %.not = icmp eq i32 %18, 0
  br i1 %.not, label %34, label %19

19:                                               ; preds = %8
  %.val79 = load ptr, ptr %0, align 8, !tbaa !41
  %20 = getelementptr i8, ptr %0, i64 32
  %.val80 = load ptr, ptr %20, align 8, !tbaa !58
  %21 = getelementptr i8, ptr %.val79, i64 32
  %.val79.val = load ptr, ptr %21, align 8, !tbaa !43
  %.val80.val = load i32, ptr %.val80, align 4, !tbaa !15
  %22 = getelementptr i8, ptr %.val79.val, i64 8
  %.val79.val.val = load ptr, ptr %22, align 8, !tbaa !54
  %23 = sext i32 %.val80.val to i64
  %24 = getelementptr inbounds ptr, ptr %.val79.val.val, i64 %23
  %25 = load ptr, ptr %24, align 8, !tbaa !56
  %26 = getelementptr i8, ptr %5, i64 4
  %.val8289 = load i32, ptr %26, align 4, !tbaa !69
  %27 = icmp sgt i32 %.val8289, 0
  br i1 %27, label %.lr.ph, label %.critedge

.lr.ph:                                           ; preds = %19
  %28 = getelementptr i8, ptr %5, i64 8
  br label %29

29:                                               ; preds = %.lr.ph, %29
  %indvars.iv = phi i64 [ 0, %.lr.ph ], [ %indvars.iv.next, %29 ]
  %.val85 = load ptr, ptr %28, align 8, !tbaa !54
  %30 = getelementptr inbounds nuw ptr, ptr %.val85, i64 %indvars.iv
  %31 = load ptr, ptr %30, align 8, !tbaa !56
  tail call void @Abc_ObjPatchFanin(ptr noundef %31, ptr noundef nonnull %0, ptr noundef %25) #13
  %indvars.iv.next = add nuw nsw i64 %indvars.iv, 1
  %.val82 = load i32, ptr %26, align 4, !tbaa !69
  %32 = sext i32 %.val82 to i64
  %33 = icmp slt i64 %indvars.iv.next, %32
  br i1 %33, label %29, label %.critedge, !llvm.loop !70

.critedge:                                        ; preds = %29, %19
  tail call void @Abc_NtkDeleteObj(ptr noundef nonnull %0) #13
  br label %37

34:                                               ; preds = %8
  %35 = sext i32 %15 to i64
  %36 = getelementptr inbounds i32, ptr %.val78, i64 %35
  tail call void @Abc_ObjChangeUpdate(ptr noundef nonnull %0, i32 noundef %.val76, ptr noundef %7, ptr noundef %36, ptr noundef %4)
  br label %37

37:                                               ; preds = %34, %.critedge
  %.0 = phi ptr [ %25, %.critedge ], [ %0, %34 ]
  %.not71 = icmp eq i32 %3, 0
  br i1 %.not71, label %41, label %38

38:                                               ; preds = %37
  %39 = load ptr, ptr %.0, align 8, !tbaa !41
  %40 = tail call ptr @Abc_NtkCreateNodeInv(ptr noundef %39, ptr noundef nonnull %.0) #13
  br label %41

41:                                               ; preds = %38, %37
  %.070 = phi ptr [ %40, %38 ], [ null, %37 ]
  %42 = getelementptr i8, ptr %5, i64 4
  %.val8394 = load i32, ptr %42, align 4, !tbaa !69
  %43 = icmp sgt i32 %.val8394, 0
  br i1 %43, label %.lr.ph96, label %.critedge2

.lr.ph96:                                         ; preds = %41
  %44 = getelementptr i8, ptr %5, i64 8
  %45 = getelementptr i8, ptr %6, i64 4
  %46 = getelementptr i8, ptr %6, i64 8
  br label %47

47:                                               ; preds = %.lr.ph96, %80
  %indvars.iv101 = phi i64 [ 0, %.lr.ph96 ], [ %indvars.iv.next102, %80 ]
  %.val86 = load ptr, ptr %44, align 8, !tbaa !54
  %48 = getelementptr inbounds nuw ptr, ptr %.val86, i64 %indvars.iv101
  %49 = load ptr, ptr %48, align 8, !tbaa !56
  %50 = getelementptr i8, ptr %49, i64 20
  %.val81 = load i32, ptr %50, align 4
  %51 = and i32 %.val81, 15
  %.not88 = icmp eq i32 %51, 7
  br i1 %.not88, label %52, label %54

52:                                               ; preds = %47
  %53 = tail call i32 @Abc_NodeIsBuf(ptr noundef nonnull %49) #13
  %.not73 = icmp eq i32 %53, 0
  br i1 %.not73, label %55, label %54

54:                                               ; preds = %52, %47
  tail call void @Abc_ObjPatchFanin(ptr noundef nonnull %49, ptr noundef %.0, ptr noundef %.070) #13
  br label %80

55:                                               ; preds = %52
  %56 = tail call i32 @Abc_NodeIsInv(ptr noundef nonnull %49) #13
  %.not74 = icmp eq i32 %56, 0
  br i1 %.not74, label %63, label %57

57:                                               ; preds = %55
  tail call void @Abc_NodeCollectFanouts(ptr noundef nonnull %49, ptr noundef %6) #13
  %.val8491 = load i32, ptr %45, align 4, !tbaa !69
  %58 = icmp sgt i32 %.val8491, 0
  br i1 %58, label %.lr.ph93, label %.critedge4

.lr.ph93:                                         ; preds = %57, %.lr.ph93
  %indvars.iv98 = phi i64 [ %indvars.iv.next99, %.lr.ph93 ], [ 0, %57 ]
  %.val87 = load ptr, ptr %46, align 8, !tbaa !54
  %59 = getelementptr inbounds nuw ptr, ptr %.val87, i64 %indvars.iv98
  %60 = load ptr, ptr %59, align 8, !tbaa !56
  tail call void @Abc_ObjPatchFanin(ptr noundef %60, ptr noundef nonnull %49, ptr noundef %.0) #13
  %indvars.iv.next99 = add nuw nsw i64 %indvars.iv98, 1
  %.val84 = load i32, ptr %45, align 4, !tbaa !69
  %61 = sext i32 %.val84 to i64
  %62 = icmp slt i64 %indvars.iv.next99, %61
  br i1 %62, label %.lr.ph93, label %.critedge4, !llvm.loop !71

.critedge4:                                       ; preds = %.lr.ph93, %57
  tail call void @Abc_NtkDeleteObj(ptr noundef nonnull %49) #13
  br label %80

63:                                               ; preds = %55
  %64 = tail call i32 @Abc_NodeFindFanin(ptr noundef nonnull %49, ptr noundef %.0) #13
  %65 = getelementptr inbounds nuw i8, ptr %49, i64 56
  %66 = load ptr, ptr %65, align 8, !tbaa !64
  %67 = tail call i32 @Mio_GateReadCell(ptr noundef %66) #13
  %.val = load ptr, ptr %12, align 8, !tbaa !11
  %68 = sext i32 %67 to i64
  %69 = getelementptr inbounds i32, ptr %.val, i64 %68
  %70 = load i32, ptr %69, align 4, !tbaa !15
  %.val77 = load ptr, ptr %16, align 8, !tbaa !11
  %71 = sext i32 %70 to i64
  %72 = getelementptr inbounds i32, ptr %.val77, i64 %71
  %73 = mul nsw i32 %64, 3
  %74 = sext i32 %73 to i64
  %75 = getelementptr inbounds i32, ptr %72, i64 %74
  %76 = load i32, ptr %75, align 4, !tbaa !15
  %77 = icmp eq i32 %76, -1
  br i1 %77, label %78, label %79

78:                                               ; preds = %63
  tail call void @Abc_ObjPatchFanin(ptr noundef nonnull %49, ptr noundef %.0, ptr noundef %.070) #13
  br label %80

79:                                               ; preds = %63
  tail call void @Abc_ObjChangeUpdate(ptr noundef nonnull %49, i32 noundef %64, ptr noundef %7, ptr noundef nonnull %72, ptr noundef %4)
  br label %80

80:                                               ; preds = %79, %78, %.critedge4, %54
  %indvars.iv.next102 = add nuw nsw i64 %indvars.iv101, 1
  %.val83 = load i32, ptr %42, align 4, !tbaa !69
  %81 = sext i32 %.val83 to i64
  %82 = icmp slt i64 %indvars.iv.next102, %81
  br i1 %82, label %47, label %.critedge2, !llvm.loop !72

.critedge2:                                       ; preds = %80, %41
  ret void
}